; Function Attrs: nounwind uwtable
define internal i32 @proxy_setitem(ptr noundef readonly captures(none) %0, ptr noundef %1, ptr noundef %2) #0 {
  %4 = getelementptr i8, ptr %0, i64 16
  %.val = load ptr, ptr %4, align 8, !tbaa !37
  %5 = icmp eq ptr %.val, @_Py_NoneStruct
  br i1 %5, label %proxy_check_ref.exit, label %6

6:                                                ; preds = %3
  %.val.i.i = load i32, ptr %.val, align 8, !tbaa !42
  %.not.i.i = icmp eq i32 %.val.i.i, 0
  br i1 %.not.i.i, label %proxy_check_ref.exit, label %7

7:                                                ; preds = %6
  %8 = icmp slt i32 %.val.i.i, 0
  br i1 %8, label %_PyWeakref_GET_REF.exit, label %9

9:                                                ; preds = %7
  %10 = add nuw i32 %.val.i.i, 1
  store i32 %10, ptr %.val, align 8, !tbaa !42
  br label %_PyWeakref_GET_REF.exit

proxy_check_ref.exit:                             ; preds = %6, %3
  %11 = load ptr, ptr @PyExc_ReferenceError, align 8, !tbaa !45
  tail call void @PyErr_SetString(ptr noundef %11, ptr noundef nonnull @.str.21) #6
  br label %Py_DECREF.exit

_PyWeakref_GET_REF.exit:                          ; preds = %9, %7
  %12 = icmp eq ptr %2, null
  br i1 %12, label %13, label %15

13:                                               ; preds = %_PyWeakref_GET_REF.exit
  %14 = tail call i32 @PyObject_DelItem(ptr noundef nonnull %.val, ptr noundef %1) #6
  br label %17

15:                                               ; preds = %_PyWeakref_GET_REF.exit
  %16 = tail call i32 @PyObject_SetItem(ptr noundef nonnull %.val, ptr noundef %1, ptr noundef nonnull %2) #6
  br label %17

17:                                               ; preds = %15, %13
  %.0 = phi i32 [ %14, %13 ], [ %16, %15 ]
  %18 = load i32, ptr %.val, align 8, !tbaa !42
  %.not.i = icmp sgt i32 %18, -1
  br i1 %.not.i, label %19, label %Py_DECREF.exit

19:                                               ; preds = %17
  %20 = add nsw i32 %18, -1
  store i32 %20, ptr %.val, align 8, !tbaa !42
  %21 = icmp eq i32 %20, 0
  br i1 %21, label %22, label %Py_DECREF.exit

22:                                               ; preds = %19
  tail call void @_Py_Dealloc(ptr noundef nonnull %.val) #6
  br label %Py_DECREF.exit

Py_DECREF.exit:                                   ; preds = %22, %19, %17, %proxy_check_ref.exit
  %.010 = phi i32 [ -1, %proxy_check_ref.exit ], [ %.0, %17 ], [ %.0, %19 ], [ %.0, %22 ]
  ret i32 %.010
}